target datalayout = "e-m:e-p270:32:32-p271:32:32-p272:64:64-i64:64-i128:128-f80:128-n8:16:32:64-S128"
target triple = "x86_64-pc-linux-gnu"

%struct._wmem_map_t = type { i32, i64, ptr, ptr, ptr, i32, i32, ptr, ptr }
%struct._wmem_map_item_t = type { ptr, ptr, ptr }

; Function Attrs: null_pointer_is_valid sspstrong uwtable
define i32 @wmem_map_foreach_remove(ptr noundef %0, ptr noundef %1, ptr noundef %2) #0 {
  %4 = alloca i32, align 4
  %5 = alloca ptr, align 8
  %6 = alloca ptr, align 8
  %7 = alloca ptr, align 8
  %8 = alloca ptr, align 8
  %9 = alloca ptr, align 8
  %10 = alloca i32, align 4
  %11 = alloca i32, align 4
  %12 = alloca i32, align 4
  store ptr %0, ptr %5, align 8
  store ptr %1, ptr %6, align 8
  store ptr %2, ptr %7, align 8
  call void @llvm.lifetime.start.p0(i64 8, ptr %8) #8
  call void @llvm.lifetime.start.p0(i64 8, ptr %9) #8
  call void @llvm.lifetime.start.p0(i64 4, ptr %10) #8
  call void @llvm.lifetime.start.p0(i64 4, ptr %11) #8
  store i32 0, ptr %11, align 4
  %13 = load ptr, ptr %5, align 8
  %14 = icmp eq ptr %13, null
  br i1 %14, label %20, label %15

15:                                               ; preds = %3
  %16 = load ptr, ptr %5, align 8
  %17 = getelementptr inbounds nuw %struct._wmem_map_t, ptr %16, i32 0, i32 2
  %18 = load ptr, ptr %17, align 8
  %19 = icmp eq ptr %18, null
  br i1 %19, label %20, label %21

20:                                               ; preds = %15, %3
  store i32 0, ptr %4, align 4
  store i32 1, ptr %12, align 4
  br label %82

21:                                               ; preds = %15
  store i32 0, ptr %10, align 4
  br label %22

22:                                               ; preds = %77, %21
  %23 = load i32, ptr %10, align 4
  %24 = zext i32 %23 to i64
  %25 = load ptr, ptr %5, align 8
  %26 = getelementptr inbounds nuw %struct._wmem_map_t, ptr %25, i32 0, i32 1
  %27 = load i64, ptr %26, align 8
  %28 = shl i64 1, %27
  %29 = icmp ult i64 %24, %28
  br i1 %29, label %30, label %80

30:                                               ; preds = %22
  %31 = load ptr, ptr %5, align 8
  %32 = getelementptr inbounds nuw %struct._wmem_map_t, ptr %31, i32 0, i32 2
  %33 = load ptr, ptr %32, align 8
  %34 = load i32, ptr %10, align 4
  %35 = zext i32 %34 to i64
  %36 = getelementptr ptr, ptr %33, i64 %35
  store ptr %36, ptr %8, align 8
  br label %37

37:                                               ; preds = %75, %30
  %38 = load ptr, ptr %8, align 8
  %39 = load ptr, ptr %38, align 8
  %40 = icmp ne ptr %39, null
  br i1 %40, label %41, label %76

41:                                               ; preds = %37
  %42 = load ptr, ptr %6, align 8
  %43 = load ptr, ptr %8, align 8
  %44 = load ptr, ptr %43, align 8
  %45 = getelementptr inbounds nuw %struct._wmem_map_item_t, ptr %44, i32 0, i32 0
  %46 = load ptr, ptr %45, align 8
  %47 = load ptr, ptr %8, align 8
  %48 = load ptr, ptr %47, align 8
  %49 = getelementptr inbounds nuw %struct._wmem_map_item_t, ptr %48, i32 0, i32 1
  %50 = load ptr, ptr %49, align 8
  %51 = load ptr, ptr %7, align 8
  %52 = call i32 %42(ptr noundef %46, ptr noundef %50, ptr noundef %51)
  %53 = icmp ne i32 %52, 0
  br i1 %53, label %54, label %71

54:                                               ; preds = %41
  %55 = load ptr, ptr %8, align 8
  %56 = load ptr, ptr %55, align 8
  store ptr %56, ptr %9, align 8
  %57 = load ptr, ptr %9, align 8
  %58 = getelementptr inbounds nuw %struct._wmem_map_item_t, ptr %57, i32 0, i32 2
  %59 = load ptr, ptr %58, align 8
  %60 = load ptr, ptr %8, align 8
  store ptr %59, ptr %60, align 8
  %61 = load ptr, ptr %5, align 8
  %62 = getelementptr inbounds nuw %struct._wmem_map_t, ptr %61, i32 0, i32 8
  %63 = load ptr, ptr %62, align 8
  %64 = load ptr, ptr %9, align 8
  call void @wmem_free(ptr noundef %63, ptr noundef %64)
  %65 = load ptr, ptr %5, align 8
  %66 = getelementptr inbounds nuw %struct._wmem_map_t, ptr %65, i32 0, i32 0
  %67 = load i32, ptr %66, align 8
  %68 = add i32 %67, -1
  store i32 %68, ptr %66, align 8
  %69 = load i32, ptr %11, align 4
  %70 = add i32 %69, 1
  store i32 %70, ptr %11, align 4
  br label %75

71:                                               ; preds = %41
  %72 = load ptr, ptr %8, align 8
  %73 = load ptr, ptr %72, align 8
  %74 = getelementptr inbounds nuw %struct._wmem_map_item_t, ptr %73, i32 0, i32 2
  store ptr %74, ptr %8, align 8
  br label %75

75:                                               ; preds = %71, %54
  br label %37, !llvm.loop !21

76:                                               ; preds = %37
  br label %77

77:                                               ; preds = %76
  %78 = load i32, ptr %10, align 4
  %79 = add i32 %78, 1
  store i32 %79, ptr %10, align 4
  br label %22, !llvm.loop !22

80:                                               ; preds = %22
  %81 = load i32, ptr %11, align 4
  store i32 %81, ptr %4, align 4
  store i32 1, ptr %12, align 4
  br label %82

82:                                               ; preds = %80, %20
  call void @llvm.lifetime.end.p0(i64 4, ptr %11) #8
  call void @llvm.lifetime.end.p0(i64 4, ptr %10) #8
  call void @llvm.lifetime.end.p0(i64 8, ptr %9) #8
  call void @llvm.lifetime.end.p0(i64 8, ptr %8) #8
  %83 = load i32, ptr %4, align 4
  ret i32 %83
}