; Function Attrs: null_pointer_is_valid sspstrong uwtable
define i32 @wmem_map_foreach_remove(ptr noundef captures(address_is_null) %0, ptr noundef readonly captures(none) %1, ptr noundef %2) local_unnamed_addr #0 {
  %4 = icmp eq ptr %0, null
  br i1 %4, label %.loopexit, label %5

5:                                                ; preds = %3
  %6 = getelementptr inbounds nuw i8, ptr %0, i64 16
  %7 = load ptr, ptr %6, align 8
  %8 = icmp eq ptr %7, null
  br i1 %8, label %.loopexit, label %.preheader

.preheader:                                       ; preds = %5
  %9 = getelementptr inbounds nuw i8, ptr %0, i64 8
  %10 = getelementptr inbounds nuw i8, ptr %0, i64 56
  br label %11

11:                                               ; preds = %.preheader, %._crit_edge
  %12 = phi i64 [ 0, %.preheader ], [ %32, %._crit_edge ]
  %.033 = phi i32 [ 0, %.preheader ], [ %.1.lcssa, %._crit_edge ]
  %.02132 = phi i32 [ 0, %.preheader ], [ %31, %._crit_edge ]
  %13 = load ptr, ptr %6, align 8
  %14 = getelementptr ptr, ptr %13, i64 %12
  %15 = load ptr, ptr %14, align 8
  %.not29 = icmp eq ptr %15, null
  br i1 %.not29, label %._crit_edge, label %.lr.ph

.lr.ph:                                           ; preds = %11, %29
  %16 = phi ptr [ %30, %29 ], [ %15, %11 ]
  %.131 = phi i32 [ %.2, %29 ], [ %.033, %11 ]
  %.02330 = phi ptr [ %.124, %29 ], [ %14, %11 ]
  %17 = load ptr, ptr %16, align 8
  %18 = getelementptr inbounds nuw i8, ptr %16, i64 8
  %19 = load ptr, ptr %18, align 8
  %20 = tail call i32 %1(ptr noundef %17, ptr noundef %19, ptr noundef %2)
  %.not28 = icmp eq i32 %20, 0
  %21 = load ptr, ptr %.02330, align 8
  %22 = getelementptr inbounds nuw i8, ptr %21, i64 16
  br i1 %.not28, label %29, label %23

23:                                               ; preds = %.lr.ph
  %24 = load ptr, ptr %22, align 8
  store ptr %24, ptr %.02330, align 8
  %25 = load ptr, ptr %10, align 8
  tail call void @wmem_free(ptr noundef %25, ptr noundef %21)
  %26 = load i32, ptr %0, align 8
  %27 = add i32 %26, -1
  store i32 %27, ptr %0, align 8
  %28 = add i32 %.131, 1
  br label %29

29:                                               ; preds = %.lr.ph, %23
  %.124 = phi ptr [ %.02330, %23 ], [ %22, %.lr.ph ]
  %.2 = phi i32 [ %28, %23 ], [ %.131, %.lr.ph ]
  %30 = load ptr, ptr %.124, align 8
  %.not = icmp eq ptr %30, null
  br i1 %.not, label %._crit_edge, label %.lr.ph, !llvm.loop !22

._crit_edge:                                      ; preds = %29, %11
  %.1.lcssa = phi i32 [ %.033, %11 ], [ %.2, %29 ]
  %31 = add i32 %.02132, 1
  %32 = zext i32 %31 to i64
  %33 = load i64, ptr %9, align 8
  %.highbits = lshr i64 %32, %33
  %34 = icmp eq i64 %.highbits, 0
  br i1 %34, label %11, label %.loopexit, !llvm.loop !23

.loopexit:                                        ; preds = %._crit_edge, %3, %5
  %.022 = phi i32 [ 0, %5 ], [ 0, %3 ], [ %.1.lcssa, %._crit_edge ]
  ret i32 %.022
}